target datalayout = "e-m:e-p270:32:32-p271:32:32-p272:64:64-i64:64-i128:128-f80:128-n8:16:32:64-S128"
target triple = "x86_64-pc-linux-gnu"

%struct.expert_field = type { i32, i32 }

@hf_tcpip_ic_ip_addr = internal global i32 0, align 4
@hf_tcpip_ic_subnet_mask = internal global i32 0, align 4
@hf_tcpip_ic_gateway = internal global i32 0, align 4
@hf_tcpip_ic_name_server = internal global i32 0, align 4
@hf_tcpip_ic_name_server2 = internal global i32 0, align 4
@hf_tcpip_ic_domain_name = internal global i32 0, align 4
@ei_mal_tcpip_interface_config = internal global %struct.expert_field zeroinitializer, align 4

; Function Attrs: null_pointer_is_valid sspstrong uwtable
define internal i32 @dissect_tcpip_interface_config(ptr noundef %0, ptr noundef %1, ptr noundef %2, ptr noundef %3, i32 noundef %4, i32 noundef %5) #0 {
  %7 = alloca i32, align 4
  %8 = alloca ptr, align 8
  %9 = alloca ptr, align 8
  %10 = alloca ptr, align 8
  %11 = alloca ptr, align 8
  %12 = alloca i32, align 4
  %13 = alloca i32, align 4
  %14 = alloca i16, align 2
  %15 = alloca i32, align 4
  store ptr %0, ptr %8, align 8
  store ptr %1, ptr %9, align 8
  store ptr %2, ptr %10, align 8
  store ptr %3, ptr %11, align 8
  store i32 %4, ptr %12, align 4
  store i32 %5, ptr %13, align 4
  call void @llvm.lifetime.start.p0(i64 2, ptr %14) #14
  %16 = load i32, ptr %13, align 4
  %17 = icmp slt i32 %16, 22
  br i1 %17, label %18, label %23

18:                                               ; preds = %6
  %19 = load ptr, ptr %8, align 8
  %20 = load ptr, ptr %10, align 8
  %21 = call ptr @expert_add_info(ptr noundef %19, ptr noundef %20, ptr noundef @ei_mal_tcpip_interface_config)
  %22 = load i32, ptr %13, align 4
  store i32 %22, ptr %7, align 4
  store i32 1, ptr %15, align 4
  br label %75

23:                                               ; preds = %6
  %24 = load ptr, ptr %9, align 8
  %25 = load i32, ptr @hf_tcpip_ic_ip_addr, align 4
  %26 = load ptr, ptr %11, align 8
  %27 = load i32, ptr %12, align 4
  %28 = call ptr @proto_tree_add_item(ptr noundef %24, i32 noundef %25, ptr noundef %26, i32 noundef %27, i32 noundef 4, i32 noundef -2147483648)
  %29 = load ptr, ptr %9, align 8
  %30 = load i32, ptr @hf_tcpip_ic_subnet_mask, align 4
  %31 = load ptr, ptr %11, align 8
  %32 = load i32, ptr %12, align 4
  %33 = add i32 %32, 4
  %34 = call ptr @proto_tree_add_item(ptr noundef %29, i32 noundef %30, ptr noundef %31, i32 noundef %33, i32 noundef 4, i32 noundef -2147483648)
  %35 = load ptr, ptr %9, align 8
  %36 = load i32, ptr @hf_tcpip_ic_gateway, align 4
  %37 = load ptr, ptr %11, align 8
  %38 = load i32, ptr %12, align 4
  %39 = add i32 %38, 8
  %40 = call ptr @proto_tree_add_item(ptr noundef %35, i32 noundef %36, ptr noundef %37, i32 noundef %39, i32 noundef 4, i32 noundef -2147483648)
  %41 = load ptr, ptr %9, align 8
  %42 = load i32, ptr @hf_tcpip_ic_name_server, align 4
  %43 = load ptr, ptr %11, align 8
  %44 = load i32, ptr %12, align 4
  %45 = add i32 %44, 12
  %46 = call ptr @proto_tree_add_item(ptr noundef %41, i32 noundef %42, ptr noundef %43, i32 noundef %45, i32 noundef 4, i32 noundef -2147483648)
  %47 = load ptr, ptr %9, align 8
  %48 = load i32, ptr @hf_tcpip_ic_name_server2, align 4
  %49 = load ptr, ptr %11, align 8
  %50 = load i32, ptr %12, align 4
  %51 = add i32 %50, 16
  %52 = call ptr @proto_tree_add_item(ptr noundef %47, i32 noundef %48, ptr noundef %49, i32 noundef %51, i32 noundef 4, i32 noundef -2147483648)
  %53 = load ptr, ptr %11, align 8
  %54 = load i32, ptr %12, align 4
  %55 = add i32 %54, 20
  %56 = call zeroext i16 @tvb_get_letohs(ptr noundef %53, i32 noundef %55)
  store i16 %56, ptr %14, align 2
  %57 = load ptr, ptr %9, align 8
  %58 = load i32, ptr @hf_tcpip_ic_domain_name, align 4
  %59 = load ptr, ptr %11, align 8
  %60 = load i32, ptr %12, align 4
  %61 = add i32 %60, 22
  %62 = load i16, ptr %14, align 2
  %63 = zext i16 %62 to i32
  %64 = call ptr @proto_tree_add_item(ptr noundef %57, i32 noundef %58, ptr noundef %59, i32 noundef %61, i32 noundef %63, i32 noundef 0)
  %65 = load i16, ptr %14, align 2
  %66 = zext i16 %65 to i32
  %67 = srem i32 %66, 2
  %68 = load i16, ptr %14, align 2
  %69 = zext i16 %68 to i32
  %70 = add i32 %69, %67
  %71 = trunc i32 %70 to i16
  store i16 %71, ptr %14, align 2
  %72 = load i16, ptr %14, align 2
  %73 = zext i16 %72 to i32
  %74 = add i32 22, %73
  store i32 %74, ptr %7, align 4
  store i32 1, ptr %15, align 4
  br label %75

75:                                               ; preds = %23, %18
  call void @llvm.lifetime.end.p0(i64 2, ptr %14) #14
  %76 = load i32, ptr %7, align 4
  ret i32 %76
}