; Function Attrs: null_pointer_is_valid sspstrong uwtable
define internal range(i32 -2147483648, 65558) i32 @dissect_tcpip_interface_config(ptr noundef %0, ptr noundef %1, ptr noundef %2, ptr noundef %3, i32 noundef %4, i32 noundef %5) #0 {
  %7 = icmp slt i32 %5, 22
  br i1 %7, label %8, label %10

8:                                                ; preds = %6
  %9 = tail call ptr @expert_add_info(ptr noundef %0, ptr noundef %2, ptr noundef nonnull @ei_mal_tcpip_interface_config)
  br label %35

10:                                               ; preds = %6
  %11 = load i32, ptr @hf_tcpip_ic_ip_addr, align 4
  %12 = tail call ptr @proto_tree_add_item(ptr noundef %1, i32 noundef %11, ptr noundef %3, i32 noundef %4, i32 noundef 4, i32 noundef -2147483648)
  %13 = load i32, ptr @hf_tcpip_ic_subnet_mask, align 4
  %14 = add i32 %4, 4
  %15 = tail call ptr @proto_tree_add_item(ptr noundef %1, i32 noundef %13, ptr noundef %3, i32 noundef %14, i32 noundef 4, i32 noundef -2147483648)
  %16 = load i32, ptr @hf_tcpip_ic_gateway, align 4
  %17 = add i32 %4, 8
  %18 = tail call ptr @proto_tree_add_item(ptr noundef %1, i32 noundef %16, ptr noundef %3, i32 noundef %17, i32 noundef 4, i32 noundef -2147483648)
  %19 = load i32, ptr @hf_tcpip_ic_name_server, align 4
  %20 = add i32 %4, 12
  %21 = tail call ptr @proto_tree_add_item(ptr noundef %1, i32 noundef %19, ptr noundef %3, i32 noundef %20, i32 noundef 4, i32 noundef -2147483648)
  %22 = load i32, ptr @hf_tcpip_ic_name_server2, align 4
  %23 = add i32 %4, 16
  %24 = tail call ptr @proto_tree_add_item(ptr noundef %1, i32 noundef %22, ptr noundef %3, i32 noundef %23, i32 noundef 4, i32 noundef -2147483648)
  %25 = add i32 %4, 20
  %26 = tail call zeroext i16 @tvb_get_letohs(ptr noundef %3, i32 noundef %25)
  %27 = load i32, ptr @hf_tcpip_ic_domain_name, align 4
  %28 = add i32 %4, 22
  %29 = zext i16 %26 to i32
  %30 = tail call ptr @proto_tree_add_item(ptr noundef %1, i32 noundef %27, ptr noundef %3, i32 noundef %28, i32 noundef %29, i32 noundef 0)
  %31 = and i16 %26, 1
  %32 = add i16 %31, %26
  %33 = zext i16 %32 to i32
  %34 = add nuw nsw i32 %33, 22
  br label %35

35:                                               ; preds = %10, %8
  %.0 = phi i32 [ %5, %8 ], [ %34, %10 ]
  ret i32 %.0
}